target datalayout = "e-m:e-p270:32:32-p271:32:32-p272:64:64-i64:64-i128:128-f80:128-n8:16:32:64-S128"
target triple = "x86_64-pc-linux-gnu"

%struct.pg_tm = type { i32, i32, i32, i32, i32, i32, i32, i32, i32, i64, ptr }
%struct.state = type { i32, i32, i32, i32, i8, i8, [2000 x i64], [2000 x i8], [256 x %struct.ttinfo], [512 x i8], [50 x %struct.lsinfo], i32 }
%struct.ttinfo = type { i32, i8, i32, i8, i8 }
%struct.lsinfo = type { i64, i64 }
%struct.pg_tz = type { [256 x i8], %struct.state }

@tm = internal global %struct.pg_tm zeroinitializer, align 8

; Function Attrs: nounwind uwtable
define dso_local ptr @pg_localtime(ptr noundef %0, ptr noundef %1) #0 {
  %3 = alloca ptr, align 8
  %4 = alloca ptr, align 8
  store ptr %0, ptr %3, align 8
  store ptr %1, ptr %4, align 8
  %5 = load ptr, ptr %4, align 8
  %6 = getelementptr inbounds nuw %struct.pg_tz, ptr %5, i32 0, i32 1
  %7 = load ptr, ptr %3, align 8
  %8 = call ptr @localsub(ptr noundef %6, ptr noundef %7, ptr noundef @tm)
  ret ptr %8
}

; Function Attrs: nounwind uwtable
define dso_local zeroext i1 @pg_tz_acceptable(ptr noundef %0) #0 {
  %2 = alloca i1, align 1
  %3 = alloca ptr, align 8
  %4 = alloca ptr, align 8
  %5 = alloca i64, align 8
  %6 = alloca i32, align 4
  store ptr %0, ptr %3, align 8
  call void @llvm.lifetime.start.p0(i64 8, ptr %4) #8
  call void @llvm.lifetime.start.p0(i64 8, ptr %5) #8
  store i64 946684800, ptr %5, align 8
  %7 = load ptr, ptr %3, align 8
  %8 = call ptr @pg_localtime(ptr noundef %5, ptr noundef %7)
  store ptr %8, ptr %4, align 8
  %9 = load ptr, ptr %4, align 8
  %10 = icmp ne ptr %9, null
  br i1 %10, label %11, label %16

11:                                               ; preds = %1
  %12 = load ptr, ptr %4, align 8
  %13 = getelementptr inbounds nuw %struct.pg_tm, ptr %12, i32 0, i32 0
  %14 = load i32, ptr %13, align 8
  %15 = icmp ne i32 %14, 0
  br i1 %15, label %16, label %17

16:                                               ; preds = %11, %1
  store i1 false, ptr %2, align 1
  store i32 1, ptr %6, align 4
  br label %18

17:                                               ; preds = %11
  store i1 true, ptr %2, align 1
  store i32 1, ptr %6, align 4
  br label %18

18:                                               ; preds = %17, %16
  call void @llvm.lifetime.end.p0(i64 8, ptr %5) #8
  call void @llvm.lifetime.end.p0(i64 8, ptr %4) #8
  %19 = load i1, ptr %2, align 1
  ret i1 %19
}