; Function Attrs: nounwind uwtable
define dso_local zeroext i1 @pg_tz_acceptable(ptr noundef %0) local_unnamed_addr #0 {
  %2 = alloca i64, align 8
  call void @llvm.lifetime.start.p0(i64 8, ptr nonnull %2) #20
  store i64 946684800, ptr %2, align 8
  %3 = getelementptr inbounds nuw i8, ptr %0, i64 256
  %4 = call fastcc ptr @localsub(ptr noundef nonnull %3, ptr noundef nonnull readonly %2)
  %.not = icmp eq ptr %4, null
  br i1 %.not, label %7, label %5

5:                                                ; preds = %1
  %6 = load i32, ptr %4, align 8
  %.not5 = icmp eq i32 %6, 0
  br label %7

7:                                                ; preds = %5, %1
  %.0 = phi i1 [ false, %1 ], [ %.not5, %5 ]
  call void @llvm.lifetime.end.p0(i64 8, ptr nonnull %2) #20
  ret i1 %.0
}